; Function Attrs: nounwind sspstrong uwtable
define internal noundef i64 @rb_f_sub(i32 noundef %0, ptr noundef %1, i64 %2) #0 {
  %4 = tail call i64 @rb_lastline_get() #25
  %5 = icmp eq i64 %4, 0
  %6 = and i64 %4, 7
  %7 = icmp ne i64 %6, 0
  %8 = or i1 %5, %7
  br i1 %8, label %rbimpl_RB_TYPE_P_fastpath.exit.thread.i, label %rbimpl_RB_TYPE_P_fastpath.exit.i

rbimpl_RB_TYPE_P_fastpath.exit.i:                 ; preds = %3
  %9 = inttoptr i64 %4 to ptr
  %10 = load i64, ptr %9, align 8, !tbaa !42
  %11 = and i64 %10, 31
  %12 = icmp eq i64 %11, 5
  br i1 %12, label %uscore_get.exit, label %rbimpl_RB_TYPE_P_fastpath.exit.thread.i

rbimpl_RB_TYPE_P_fastpath.exit.thread.i:          ; preds = %rbimpl_RB_TYPE_P_fastpath.exit.i, %3
  %13 = load i64, ptr @rb_eTypeError, align 8, !tbaa !47
  %14 = icmp eq i64 %4, 4
  br i1 %14, label %17, label %15

15:                                               ; preds = %rbimpl_RB_TYPE_P_fastpath.exit.thread.i
  %16 = tail call ptr @rb_obj_classname(i64 noundef %4) #25
  br label %17

17:                                               ; preds = %15, %rbimpl_RB_TYPE_P_fastpath.exit.thread.i
  %18 = phi ptr [ %16, %15 ], [ @.str.228, %rbimpl_RB_TYPE_P_fastpath.exit.thread.i ]
  tail call void (i64, ptr, ...) @rb_raise(i64 noundef %13, ptr noundef nonnull @.str.227, ptr noundef %18) #26
  unreachable

uscore_get.exit:                                  ; preds = %rbimpl_RB_TYPE_P_fastpath.exit.i
  %.pr.i = load i64, ptr @rb_f_sub.rbimpl_id, align 8, !tbaa !47
  %.not4.i = icmp eq i64 %.pr.i, 0
  br i1 %.not4.i, label %.lr.ph.i, label %rbimpl_intern_const.exit

.lr.ph.i:                                         ; preds = %uscore_get.exit, %.lr.ph.i
  %19 = tail call i64 @rb_intern2(ptr noundef nonnull @.str.220, i64 noundef 3) #25
  store i64 %19, ptr @rb_f_sub.rbimpl_id, align 8, !tbaa !47
  %.not.i = icmp eq i64 %19, 0
  br i1 %.not.i, label %.lr.ph.i, label %rbimpl_intern_const.exit, !llvm.loop !163

rbimpl_intern_const.exit:                         ; preds = %.lr.ph.i, %uscore_get.exit
  %.lcssa.i = phi i64 [ %.pr.i, %uscore_get.exit ], [ %19, %.lr.ph.i ]
  %20 = tail call i64 @rb_funcall_passing_block(i64 noundef %4, i64 noundef %.lcssa.i, i32 noundef %0, ptr noundef %1) #25
  tail call void @rb_lastline_set(i64 noundef %20) #25
  ret i64 %20
}